target datalayout = "e-m:e-p270:32:32-p271:32:32-p272:64:64-i64:64-i128:128-f80:128-n8:16:32:64-S128"
target triple = "x86_64-pc-linux-gnu"

%"class.llvm::SmallVectorBase" = type { ptr, i32, i32 }
%"class.clang::CodeGen::EHScopeStack" = type { ptr, ptr, ptr, %"class.clang::CodeGen::EHScopeStack::stable_iterator", %"class.clang::CodeGen::EHScopeStack::stable_iterator", ptr, %"class.llvm::SmallVector.59" }
%"class.llvm::SmallVector.59" = type { %"class.llvm::SmallVectorImpl.60", %"struct.llvm::SmallVectorStorage.63" }
%"class.llvm::SmallVectorImpl.60" = type { %"class.llvm::SmallVectorTemplateBase.61" }
%"class.llvm::SmallVectorTemplateBase.61" = type { %"class.llvm::SmallVectorTemplateCommon.62" }
%"class.llvm::SmallVectorTemplateCommon.62" = type { %"class.llvm::SmallVectorBase" }
%"struct.llvm::SmallVectorStorage.63" = type { [256 x i8] }
%"class.clang::CodeGen::EHScopeStack::stable_iterator" = type { i64 }
%"class.clang::CodeGen::EHScope" = type <{ ptr, ptr, %"class.clang::CodeGen::EHScopeStack::stable_iterator", %union.anon.194, [4 x i8] }>
%union.anon.194 = type { %"class.clang::CodeGen::EHScope::CatchBitFields" }
%"class.clang::CodeGen::EHScope::CatchBitFields" = type { i32 }

; Function Attrs: mustprogress nounwind uwtable
define linkonce_odr hidden noundef i64 @_ZN4llvm10divideCeilEmm(i64 noundef %0, i64 noundef %1) #0 comdat {
  %3 = alloca i64, align 8
  %4 = alloca i64, align 8
  %5 = alloca i64, align 8
  store i64 %0, ptr %3, align 8
  store i64 %1, ptr %4, align 8
  %6 = load i64, ptr %3, align 8
  %7 = icmp ne i64 %6, 0
  %8 = zext i1 %7 to i64
  store i64 %8, ptr %5, align 8
  %9 = load i64, ptr %3, align 8
  %10 = load i64, ptr %5, align 8
  %11 = sub i64 %9, %10
  %12 = load i64, ptr %4, align 8
  %13 = udiv i64 %11, %12
  %14 = load i64, ptr %5, align 8
  %15 = add i64 %13, %14
  ret i64 %15
}

; Function Attrs: mustprogress nounwind uwtable
define linkonce_odr hidden void @_ZN5clang7CodeGen12EHScopeStack15stable_iteratorC2El(ptr noundef nonnull align 8 dereferenceable(8) %0, i64 noundef %1) unnamed_addr #0 comdat align 2 {
  %3 = alloca ptr, align 8
  %4 = alloca i64, align 8
  store ptr %0, ptr %3, align 8
  store i64 %1, ptr %4, align 8
  %5 = load ptr, ptr %3, align 8
  %6 = getelementptr inbounds nuw %"class.clang::CodeGen::EHScopeStack::stable_iterator", ptr %5, i32 0, i32 0
  %7 = load i64, ptr %4, align 8
  store i64 %7, ptr %6, align 8
  ret void
}

; Function Attrs: mustprogress nounwind uwtable
define linkonce_odr hidden void @_ZN5clang7CodeGen7EHScopeC2ENS1_4KindENS0_12EHScopeStack15stable_iteratorE(ptr noundef nonnull align 8 dereferenceable(28) %0, i32 noundef %1, i64 %2) unnamed_addr #0 comdat align 2 {
  %4 = alloca %"class.clang::CodeGen::EHScopeStack::stable_iterator", align 8
  %5 = alloca ptr, align 8
  %6 = alloca i32, align 4
  %7 = getelementptr inbounds nuw %"class.clang::CodeGen::EHScopeStack::stable_iterator", ptr %4, i32 0, i32 0
  store i64 %2, ptr %7, align 8
  store ptr %0, ptr %5, align 8
  store i32 %1, ptr %6, align 4
  %8 = load ptr, ptr %5, align 8
  %9 = getelementptr inbounds nuw %"class.clang::CodeGen::EHScope", ptr %8, i32 0, i32 0
  store ptr null, ptr %9, align 8
  %10 = getelementptr inbounds nuw %"class.clang::CodeGen::EHScope", ptr %8, i32 0, i32 1
  store ptr null, ptr %10, align 8
  %11 = getelementptr inbounds nuw %"class.clang::CodeGen::EHScope", ptr %8, i32 0, i32 2
  call void @llvm.memcpy.p0.p0.i64(ptr align 8 %11, ptr align 8 %4, i64 8, i1 false)
  %12 = load i32, ptr %6, align 4
  %13 = getelementptr inbounds nuw %"class.clang::CodeGen::EHScope", ptr %8, i32 0, i32 3
  %14 = trunc i32 %12 to i8
  %15 = load i8, ptr %13, align 8
  %16 = and i8 %14, 7
  %17 = and i8 %15, -8
  %18 = or i8 %17, %16
  store i8 %18, ptr %13, align 8
  ret void
}

; Function Attrs: mustprogress nounwind uwtable
define linkonce_odr hidden noundef i64 @_ZN4llvm7alignToEmm(i64 noundef %0, i64 noundef %1) #0 comdat {
  %3 = alloca i64, align 8
  %4 = alloca i64, align 8
  %5 = alloca i64, align 8
  store i64 %0, ptr %3, align 8
  store i64 %1, ptr %4, align 8
  %6 = load i64, ptr %3, align 8
  %7 = load i64, ptr %4, align 8
  %8 = call noundef i64 @_ZN4llvm10divideCeilEmm(i64 noundef %6, i64 noundef %7)
  store i64 %8, ptr %5, align 8
  %9 = load i64, ptr %5, align 8
  %10 = load i64, ptr %4, align 8
  %11 = mul i64 %9, %10
  ret i64 %11
}

; Function Attrs: mustprogress nounwind uwtable
define linkonce_odr hidden i64 @_ZNK5clang7CodeGen12EHScopeStack12stable_beginEv(ptr noundef nonnull align 8 dereferenceable(320) %0) #0 comdat align 2 {
  %2 = alloca %"class.clang::CodeGen::EHScopeStack::stable_iterator", align 8
  %3 = alloca ptr, align 8
  store ptr %0, ptr %3, align 8
  %4 = load ptr, ptr %3, align 8
  %5 = getelementptr inbounds nuw %"class.clang::CodeGen::EHScopeStack", ptr %4, i32 0, i32 1
  %6 = load ptr, ptr %5, align 8
  %7 = getelementptr inbounds nuw %"class.clang::CodeGen::EHScopeStack", ptr %4, i32 0, i32 2
  %8 = load ptr, ptr %7, align 8
  %9 = ptrtoint ptr %6 to i64
  %10 = ptrtoint ptr %8 to i64
  %11 = sub i64 %9, %10
  call void @_ZN5clang7CodeGen12EHScopeStack15stable_iteratorC2El(ptr noundef nonnull align 8 dereferenceable(8) %2, i64 noundef %11)
  %12 = getelementptr inbounds nuw %"class.clang::CodeGen::EHScopeStack::stable_iterator", ptr %2, i32 0, i32 0
  %13 = load i64, ptr %12, align 8
  ret i64 %13
}

; Function Attrs: mustprogress nounwind uwtable
define linkonce_odr hidden void @_ZN5clang7CodeGen16EHTerminateScopeC2ENS0_12EHScopeStack15stable_iteratorE(ptr noundef nonnull align 8 dereferenceable(28) %0, i64 %1) unnamed_addr #0 comdat align 2 {
  %3 = alloca %"class.clang::CodeGen::EHScopeStack::stable_iterator", align 8
  %4 = alloca ptr, align 8
  %5 = alloca %"class.clang::CodeGen::EHScopeStack::stable_iterator", align 8
  %6 = getelementptr inbounds nuw %"class.clang::CodeGen::EHScopeStack::stable_iterator", ptr %3, i32 0, i32 0
  store i64 %1, ptr %6, align 8
  store ptr %0, ptr %4, align 8
  %7 = load ptr, ptr %4, align 8
  call void @llvm.memcpy.p0.p0.i64(ptr align 8 %5, ptr align 8 %3, i64 8, i1 false)
  %8 = getelementptr inbounds nuw %"class.clang::CodeGen::EHScopeStack::stable_iterator", ptr %5, i32 0, i32 0
  %9 = load i64, ptr %8, align 8
  call void @_ZN5clang7CodeGen7EHScopeC2ENS1_4KindENS0_12EHScopeStack15stable_iteratorE(ptr noundef nonnull align 8 dereferenceable(28) %7, i32 noundef 2, i64 %9)
  ret void
}

; Function Attrs: mustprogress nounwind uwtable
define dso_local noundef ptr @_ZN5clang7CodeGen12EHScopeStack8allocateEm(ptr noundef nonnull align 8 dereferenceable(320) %0, i64 noundef %1) #0 align 2 {
  %3 = alloca ptr, align 8
  %4 = alloca i64, align 8
  %5 = alloca i32, align 4
  %6 = alloca i32, align 4
  %7 = alloca i32, align 4
  %8 = alloca i32, align 4
  %9 = alloca ptr, align 8
  %10 = alloca ptr, align 8
  %11 = alloca ptr, align 8
  store ptr %0, ptr %3, align 8
  store i64 %1, ptr %4, align 8
  %12 = load ptr, ptr %3, align 8
  %13 = load i64, ptr %4, align 8
  %14 = call noundef i64 @_ZN4llvm7alignToEmm(i64 noundef %13, i64 noundef 8)
  store i64 %14, ptr %4, align 8
  %15 = getelementptr inbounds nuw %"class.clang::CodeGen::EHScopeStack", ptr %12, i32 0, i32 0
  %16 = load ptr, ptr %15, align 8
  %17 = icmp ne ptr %16, null
  br i1 %17, label %39, label %18

18:                                               ; preds = %2
  store i32 1024, ptr %5, align 4
  br label %19

19:                                               ; preds = %24, %18
  %20 = load i32, ptr %5, align 4
  %21 = zext i32 %20 to i64
  %22 = load i64, ptr %4, align 8
  %23 = icmp ult i64 %21, %22
  br i1 %23, label %24, label %27

24:                                               ; preds = %19
  %25 = load i32, ptr %5, align 4
  %26 = mul i32 %25, 2
  store i32 %26, ptr %5, align 4
  br label %19, !llvm.loop !4

27:                                               ; preds = %19
  %28 = load i32, ptr %5, align 4
  %29 = zext i32 %28 to i64
  %30 = call noalias noundef nonnull ptr @_Znam(i64 noundef %29) #10
  %31 = getelementptr inbounds nuw %"class.clang::CodeGen::EHScopeStack", ptr %12, i32 0, i32 0
  store ptr %30, ptr %31, align 8
  %32 = getelementptr inbounds nuw %"class.clang::CodeGen::EHScopeStack", ptr %12, i32 0, i32 0
  %33 = load ptr, ptr %32, align 8
  %34 = load i32, ptr %5, align 4
  %35 = zext i32 %34 to i64
  %36 = getelementptr inbounds i8, ptr %33, i64 %35
  %37 = getelementptr inbounds nuw %"class.clang::CodeGen::EHScopeStack", ptr %12, i32 0, i32 1
  store ptr %36, ptr %37, align 8
  %38 = getelementptr inbounds nuw %"class.clang::CodeGen::EHScopeStack", ptr %12, i32 0, i32 2
  store ptr %36, ptr %38, align 8
  br label %111

39:                                               ; preds = %2
  %40 = getelementptr inbounds nuw %"class.clang::CodeGen::EHScopeStack", ptr %12, i32 0, i32 2
  %41 = load ptr, ptr %40, align 8
  %42 = getelementptr inbounds nuw %"class.clang::CodeGen::EHScopeStack", ptr %12, i32 0, i32 0
  %43 = load ptr, ptr %42, align 8
  %44 = ptrtoint ptr %41 to i64
  %45 = ptrtoint ptr %43 to i64
  %46 = sub i64 %44, %45
  %47 = load i64, ptr %4, align 8
  %48 = icmp ult i64 %46, %47
  br i1 %48, label %49, label %110

49:                                               ; preds = %39
  %50 = getelementptr inbounds nuw %"class.clang::CodeGen::EHScopeStack", ptr %12, i32 0, i32 1
  %51 = load ptr, ptr %50, align 8
  %52 = getelementptr inbounds nuw %"class.clang::CodeGen::EHScopeStack", ptr %12, i32 0, i32 0
  %53 = load ptr, ptr %52, align 8
  %54 = ptrtoint ptr %51 to i64
  %55 = ptrtoint ptr %53 to i64
  %56 = sub i64 %54, %55
  %57 = trunc i64 %56 to i32
  store i32 %57, ptr %6, align 4
  %58 = load i32, ptr %6, align 4
  %59 = zext i32 %58 to i64
  %60 = getelementptr inbounds nuw %"class.clang::CodeGen::EHScopeStack", ptr %12, i32 0, i32 2
  %61 = load ptr, ptr %60, align 8
  %62 = getelementptr inbounds nuw %"class.clang::CodeGen::EHScopeStack", ptr %12, i32 0, i32 0
  %63 = load ptr, ptr %62, align 8
  %64 = ptrtoint ptr %61 to i64
  %65 = ptrtoint ptr %63 to i64
  %66 = sub i64 %64, %65
  %67 = sub nsw i64 %59, %66
  %68 = trunc i64 %67 to i32
  store i32 %68, ptr %7, align 4
  %69 = load i32, ptr %6, align 4
  store i32 %69, ptr %8, align 4
  br label %70

70:                                               ; preds = %73, %49
  %71 = load i32, ptr %8, align 4
  %72 = mul i32 %71, 2
  store i32 %72, ptr %8, align 4
  br label %73

73:                                               ; preds = %70
  %74 = load i32, ptr %8, align 4
  %75 = zext i32 %74 to i64
  %76 = load i32, ptr %7, align 4
  %77 = zext i32 %76 to i64
  %78 = load i64, ptr %4, align 8
  %79 = add i64 %77, %78
  %80 = icmp ult i64 %75, %79
  br i1 %80, label %70, label %81, !llvm.loop !6

81:                                               ; preds = %73
  %82 = load i32, ptr %8, align 4
  %83 = zext i32 %82 to i64
  %84 = call noalias noundef nonnull ptr @_Znam(i64 noundef %83) #10
  store ptr %84, ptr %9, align 8
  %85 = load ptr, ptr %9, align 8
  %86 = load i32, ptr %8, align 4
  %87 = zext i32 %86 to i64
  %88 = getelementptr inbounds i8, ptr %85, i64 %87
  store ptr %88, ptr %10, align 8
  %89 = load ptr, ptr %10, align 8
  %90 = load i32, ptr %7, align 4
  %91 = zext i32 %90 to i64
  %92 = sub i64 0, %91
  %93 = getelementptr inbounds i8, ptr %89, i64 %92
  store ptr %93, ptr %11, align 8
  %94 = load ptr, ptr %11, align 8
  %95 = getelementptr inbounds nuw %"class.clang::CodeGen::EHScopeStack", ptr %12, i32 0, i32 2
  %96 = load ptr, ptr %95, align 8
  %97 = load i32, ptr %7, align 4
  %98 = zext i32 %97 to i64
  call void @llvm.memcpy.p0.p0.i64(ptr align 1 %94, ptr align 1 %96, i64 %98, i1 false)
  %99 = getelementptr inbounds nuw %"class.clang::CodeGen::EHScopeStack", ptr %12, i32 0, i32 0
  %100 = load ptr, ptr %99, align 8
  %101 = icmp eq ptr %100, null
  br i1 %101, label %103, label %102

102:                                              ; preds = %81
  call void @_ZdaPv(ptr noundef %100) #11
  br label %103

103:                                              ; preds = %102, %81
  %104 = load ptr, ptr %9, align 8
  %105 = getelementptr inbounds nuw %"class.clang::CodeGen::EHScopeStack", ptr %12, i32 0, i32 0
  store ptr %104, ptr %105, align 8
  %106 = load ptr, ptr %10, align 8
  %107 = getelementptr inbounds nuw %"class.clang::CodeGen::EHScopeStack", ptr %12, i32 0, i32 1
  store ptr %106, ptr %107, align 8
  %108 = load ptr, ptr %11, align 8
  %109 = getelementptr inbounds nuw %"class.clang::CodeGen::EHScopeStack", ptr %12, i32 0, i32 2
  store ptr %108, ptr %109, align 8
  br label %110

110:                                              ; preds = %103, %39
  br label %111

111:                                              ; preds = %110, %27
  %112 = load i64, ptr %4, align 8
  %113 = getelementptr inbounds nuw %"class.clang::CodeGen::EHScopeStack", ptr %12, i32 0, i32 2
  %114 = load ptr, ptr %113, align 8
  %115 = sub i64 0, %112
  %116 = getelementptr inbounds i8, ptr %114, i64 %115
  store ptr %116, ptr %113, align 8
  %117 = getelementptr inbounds nuw %"class.clang::CodeGen::EHScopeStack", ptr %12, i32 0, i32 2
  %118 = load ptr, ptr %117, align 8
  ret ptr %118
}

; Function Attrs: mustprogress nounwind uwtable
define linkonce_odr hidden noundef i64 @_ZN5clang7CodeGen16EHTerminateScope7getSizeEv() #0 comdat align 2 {
  ret i64 32
}

; Function Attrs: mustprogress nounwind uwtable
define dso_local void @_ZN5clang7CodeGen12EHScopeStack13pushTerminateEv(ptr noundef nonnull align 8 dereferenceable(320) %0) #0 align 2 {
  %2 = alloca ptr, align 8
  %3 = alloca ptr, align 8
  %4 = alloca %"class.clang::CodeGen::EHScopeStack::stable_iterator", align 8
  %5 = alloca %"class.clang::CodeGen::EHScopeStack::stable_iterator", align 8
  store ptr %0, ptr %2, align 8
  %6 = load ptr, ptr %2, align 8
  %7 = call noundef i64 @_ZN5clang7CodeGen16EHTerminateScope7getSizeEv()
  %8 = call noundef ptr @_ZN5clang7CodeGen12EHScopeStack8allocateEm(ptr noundef nonnull align 8 dereferenceable(320) %6, i64 noundef %7)
  store ptr %8, ptr %3, align 8
  %9 = load ptr, ptr %3, align 8
  %10 = getelementptr inbounds nuw %"class.clang::CodeGen::EHScopeStack", ptr %6, i32 0, i32 4
  call void @llvm.memcpy.p0.p0.i64(ptr align 8 %4, ptr align 8 %10, i64 8, i1 false)
  %11 = getelementptr inbounds nuw %"class.clang::CodeGen::EHScopeStack::stable_iterator", ptr %4, i32 0, i32 0
  %12 = load i64, ptr %11, align 8
  call void @_ZN5clang7CodeGen16EHTerminateScopeC2ENS0_12EHScopeStack15stable_iteratorE(ptr noundef nonnull align 8 dereferenceable(28) %9, i64 %12)
  %13 = call i64 @_ZNK5clang7CodeGen12EHScopeStack12stable_beginEv(ptr noundef nonnull align 8 dereferenceable(320) %6)
  %14 = getelementptr inbounds nuw %"class.clang::CodeGen::EHScopeStack::stable_iterator", ptr %5, i32 0, i32 0
  store i64 %13, ptr %14, align 8
  %15 = getelementptr inbounds nuw %"class.clang::CodeGen::EHScopeStack", ptr %6, i32 0, i32 4
  call void @llvm.memcpy.p0.p0.i64(ptr align 8 %15, ptr align 8 %5, i64 8, i1 false)
  ret void
}