; Function Attrs: mustprogress nounwind uwtable
define dso_local void @_ZN5clang7CodeGen12EHScopeStack13pushTerminateEv(ptr nocapture noundef nonnull align 8 dereferenceable(320) %0) local_unnamed_addr #1 align 2 {
  %2 = load ptr, ptr %0, align 8
  %.not.i = icmp eq ptr %2, null
  br i1 %.not.i, label %.preheader.i.preheader, label %6

.preheader.i.preheader:                           ; preds = %1
  %3 = tail call noalias noundef nonnull dereferenceable(1024) ptr @_Znam(i64 noundef 1024) #20
  store ptr %3, ptr %0, align 8
  %4 = getelementptr inbounds i8, ptr %3, i64 1024
  %5 = getelementptr inbounds nuw i8, ptr %0, i64 8
  store ptr %4, ptr %5, align 8
  br label %_ZN5clang7CodeGen12EHScopeStack8allocateEm.exit

6:                                                ; preds = %1
  %7 = getelementptr inbounds nuw i8, ptr %0, i64 16
  %8 = load ptr, ptr %7, align 8
  %9 = ptrtoint ptr %8 to i64
  %10 = ptrtoint ptr %2 to i64
  %11 = sub i64 %9, %10
  %12 = icmp ult i64 %11, 32
  br i1 %12, label %13, label %_ZN5clang7CodeGen12EHScopeStack8allocateEm.exit

13:                                               ; preds = %6
  %14 = getelementptr inbounds nuw i8, ptr %0, i64 8
  %15 = load ptr, ptr %14, align 8
  %16 = ptrtoint ptr %15 to i64
  %17 = sub i64 %16, %10
  %18 = trunc i64 %17 to i32
  %19 = sub i64 %17, %11
  %20 = and i64 %19, 4294967295
  %21 = add nuw nsw i64 %20, 32
  br label %22

22:                                               ; preds = %22, %13
  %.024.i = phi i32 [ %18, %13 ], [ %23, %22 ]
  %23 = shl i32 %.024.i, 1
  %24 = zext i32 %23 to i64
  %25 = icmp ugt i64 %21, %24
  br i1 %25, label %22, label %26, !llvm.loop !21

26:                                               ; preds = %22
  %27 = tail call noalias noundef nonnull ptr @_Znam(i64 noundef %24) #20
  %28 = getelementptr inbounds i8, ptr %27, i64 %24
  %29 = sub nsw i64 0, %20
  %30 = getelementptr inbounds i8, ptr %28, i64 %29
  tail call void @llvm.memcpy.p0.p0.i64(ptr nonnull align 1 %30, ptr align 1 %8, i64 %20, i1 false)
  tail call void @_ZdaPv(ptr noundef %2) #21
  store ptr %27, ptr %0, align 8
  store ptr %28, ptr %14, align 8
  br label %_ZN5clang7CodeGen12EHScopeStack8allocateEm.exit

_ZN5clang7CodeGen12EHScopeStack8allocateEm.exit:  ; preds = %.preheader.i.preheader, %6, %26
  %31 = phi ptr [ %8, %6 ], [ %30, %26 ], [ %4, %.preheader.i.preheader ]
  %32 = getelementptr inbounds nuw i8, ptr %0, i64 16
  %33 = getelementptr inbounds i8, ptr %31, i64 -32
  store ptr %33, ptr %32, align 8
  %34 = getelementptr inbounds nuw i8, ptr %0, i64 32
  %.sroa.01.0.copyload = load i64, ptr %34, align 8
  %35 = getelementptr inbounds i8, ptr %31, i64 -16
  tail call void @llvm.memset.p0.i64(ptr noundef nonnull align 8 dereferenceable(16) %33, i8 0, i64 16, i1 false)
  store i64 %.sroa.01.0.copyload, ptr %35, align 8
  %36 = getelementptr inbounds i8, ptr %31, i64 -8
  %37 = load i8, ptr %36, align 8
  %38 = and i8 %37, -8
  %39 = or disjoint i8 %38, 2
  store i8 %39, ptr %36, align 8
  %40 = getelementptr inbounds nuw i8, ptr %0, i64 8
  %41 = load ptr, ptr %40, align 8
  %42 = load ptr, ptr %32, align 8
  %43 = ptrtoint ptr %41 to i64
  %44 = ptrtoint ptr %42 to i64
  %45 = sub i64 %43, %44
  store i64 %45, ptr %34, align 8
  ret void
}